Certificate:
    Data:
        Version: 3 (0x2)
        Serial Number:
            19:21:09:f3:84:b4:67:6f:1b:b4:bd:b9:da:e6:19:8b
    Signature Algorithm: sha1WithRSAEncryption
        Issuer: C=US, O=Thawte, Inc., OU=Domain Validated SSL, CN=Thawte DV SSL CA
        Validity
            Not Before: Jan 28 00:00:00 2013 GMT
            Not After : Mar 28 23:59:59 2017 GMT
        Subject: OU=Go to https://www.thawte.com/repository/index.html, OU=Thawte SSL123 certificate, OU=Domain Validated, CN=counter.yadro.ru
        Subject Public Key Info:
            Public Key Algorithm: rsaEncryption
                Public-Key: (2048 bit)
                Modulus:
                    00:b8:b2:1f:5b:77:26:c7:86:90:aa:b7:34:5b:7e:
                    4d:69:fd:f9:a2:fc:86:55:18:bb:e1:fa:ae:3b:81:
                    40:9f:0c:da:9d:4a:36:68:20:d4:f6:1e:3c:f2:10:
                    c7:a7:18:7d:5f:ee:cb:97:91:03:78:6f:53:20:1d:
                    67:cf:e1:f5:db:ac:31:57:e9:e2:ef:41:7b:f4:3e:
                    28:e9:35:af:6f:6c:c0:16:5a:88:ba:9d:c1:1b:fb:
                    ba:e4:77:4b:35:f1:3e:f4:ed:1e:7e:33:f1:47:74:
                    2d:27:87:f4:3f:35:53:ea:d6:ab:12:ab:1e:d6:34:
                    0a:6d:39:14:a3:f7:da:b2:ad:25:10:1a:93:4f:89:
                    fc:d8:a8:aa:05:16:34:f5:8d:36:e0:eb:86:74:3e:
                    9f:5c:85:74:e0:8e:a9:e7:77:60:d2:07:81:2b:b6:
                    d5:c6:19:f2:ec:58:5b:b2:7e:a9:63:29:e0:c2:72:
                    e2:84:f0:37:59:06:7e:d0:0f:e5:93:b4:d8:a0:23:
                    00:9d:f5:f5:a5:c0:72:69:90:79:e4:cd:32:12:75:
                    33:6a:49:99:a9:7c:bd:44:7d:9f:99:ea:6b:9d:a5:
                    97:85:05:a4:f4:96:dc:89:82:80:40:29:60:27:d0:
                    95:72:aa:75:df:b1:45:ca:20:81:b2:69:ec:56:00:
                    61:55
                Exponent: 65537 (0x10001)
        X509v3 extensions:
            X509v3 Subject Alternative Name: 
                DNS:counter.yadro.ru
            X509v3 Basic Constraints: 
                CA:FALSE
            X509v3 CRL Distribution Points: 

                Full Name:
                  URI:http://svr-dv-crl.thawte.com/ThawteDV.crl

            X509v3 Certificate Policies: 
                Policy: 2.16.840.1.113733.1.7.54
                  CPS: https://www.thawte.com/cps

            X509v3 Authority Key Identifier: 
                keyid:AB:44:E4:5D:EC:83:C7:D9:C0:85:9F:F7:E1:C6:97:90:B0:8C:3F:98

            X509v3 Key Usage: critical
                Digital Signature, Key Encipherment
            X509v3 Extended Key Usage: 
                TLS Web Server Authentication, TLS Web Client Authentication
            Authority Information Access: 
                OCSP - URI:http://ocsp.thawte.com
                CA Issuers - URI:http://svr-dv-aia.thawte.com/ThawteDV.cer

    Signature Algorithm: sha1WithRSAEncryption
         08:2c:4c:77:9b:8d:eb:e9:36:47:23:d1:4b:aa:ed:11:77:ee:
         fa:9e:1b:a0:1e:aa:77:16:b1:af:bb:41:7e:77:0a:a5:01:82:
         7c:ba:6a:42:d0:ae:c2:b6:b6:8f:07:87:d4:f1:c3:f1:7b:3b:
         64:fb:e9:d0:e1:68:0b:ab:ea:24:29:13:5f:c2:f7:b9:49:01:
         8b:7a:a9:66:24:d1:02:76:5a:ee:c4:03:6b:f8:2f:c0:75:c4:
         55:af:4f:3b:30:71:fa:16:fc:89:cb:f8:90:4a:72:3c:92:64:
         ae:b1:15:c1:5d:a6:78:43:63:e6:41:04:71:68:af:85:8e:77:
         ac:4c:a0:73:8b:1c:39:6a:ed:eb:6b:ac:40:d0:00:ef:bb:23:
         51:10:0d:fa:5e:18:6d:b8:f0:e8:b4:97:df:8e:81:dc:cf:96:
         c8:ef:c2:f4:88:d7:3e:e8:40:61:2b:44:29:55:49:ec:8a:d0:
         97:cc:11:86:b2:dd:37:bd:0d:d5:27:7e:74:f1:a9:5c:a1:fc:
         23:67:1e:2b:32:96:a2:23:4e:9f:f2:a3:f4:8e:45:98:85:32:
         94:7f:bf:1b:ba:fb:79:d8:8d:41:59:dd:63:e4:ce:30:79:d1:
         8b:99:b1:c4:9e:f1:de:22:df:42:00:04:d7:54:8e:96:40:57:
         94:98:85:91
-----BEGIN CERTIFICATE-----
MIIE6DCCA9CgAwIBAgIQGSEJ84S0Z28btL252uYZizANBgkqhkiG9w0BAQUFADBe
MQswCQYDVQQGEwJVUzEVMBMGA1UEChMMVGhhd3RlLCBJbmMuMR0wGwYDVQQLExRE
b21haW4gVmFsaWRhdGVkIFNTTDEZMBcGA1UEAxMQVGhhd3RlIERWIFNTTCBDQTAe
Fw0xMzAxMjgwMDAwMDBaFw0xNzAzMjgyMzU5NTlaMIGXMTswOQYDVQQLEzJHbyB0
byBodHRwczovL3d3dy50aGF3dGUuY29tL3JlcG9zaXRvcnkvaW5kZXguaHRtbDEi
MCAGA1UECxMZVGhhd3RlIFNTTDEyMyBjZXJ0aWZpY2F0ZTEZMBcGA1UECxMQRG9t
YWluIFZhbGlkYXRlZDEZMBcGA1UEAxQQY291bnRlci55YWRyby5ydTCCASIwDQYJ
KoZIhvcNAQEBBQADggEPADCCAQoCggEBALiyH1t3JseGkKq3NFt+TWn9+aL8hlUY
u+H6rjuBQJ8M2p1KNmgg1PYePPIQx6cYfV/uy5eRA3hvUyAdZ8/h9dusMVfp4u9B
e/Q+KOk1r29swBZaiLqdwRv7uuR3SzXxPvTtHn4z8Ud0LSeH9D81U+rWqxKrHtY0
Cm05FKP32rKtJRAak0+J/NioqgUWNPWNNuDrhnQ+n1yFdOCOqed3YNIHgSu21cYZ
8uxYW7J+qWMp4MJy4oTwN1kGftAP5ZO02KAjAJ319aXAcmmQeeTNMhJ1M2pJmal8
vUR9n5nqa52ll4UFpPSW3ImCgEApYCfQlXKqdd+xRcoggbJp7FYAYVUCAwEAAaOC
AWYwggFiMBsGA1UdEQQUMBKCEGNvdW50ZXIueWFkcm8ucnUwCQYDVR0TBAIwADA6
BgNVHR8EMzAxMC+gLaArhilodHRwOi8vc3ZyLWR2LWNybC50aGF3dGUuY29tL1Ro
YXd0ZURWLmNybDBBBgNVHSAEOjA4MDYGCmCGSAGG+EUBBzYwKDAmBggrBgEFBQcC
ARYaaHR0cHM6Ly93d3cudGhhd3RlLmNvbS9jcHMwHwYDVR0jBBgwFoAUq0TkXeyD
x9nAhZ/34caXkLCMP5gwDgYDVR0PAQH/BAQDAgWgMB0GA1UdJQQWMBQGCCsGAQUF
BwMBBggrBgEFBQcDAjBpBggrBgEFBQcBAQRdMFswIgYIKwYBBQUHMAGGFmh0dHA6
Ly9vY3NwLnRoYXd0ZS5jb20wNQYIKwYBBQUHMAKGKWh0dHA6Ly9zdnItZHYtYWlh
LnRoYXd0ZS5jb20vVGhhd3RlRFYuY2VyMA0GCSqGSIb3DQEBBQUAA4IBAQAILEx3
m43r6TZHI9FLqu0Rd+76nhugHqp3FrGvu0F+dwqlAYJ8umpC0K7CtraPB4fU8cPx
eztk++nQ4WgLq+okKRNfwve5SQGLeqlmJNECdlruxANr+C/AdcRVr087MHH6FvyJ
y/iQSnI8kmSusRXBXaZ4Q2PmQQRxaK+FjnesTKBzixw5au3ra6xA0ADvuyNREA36
XhhtuPDotJffjoHcz5bI78L0iNc+6EBhK0QpVUnsitCXzBGGst03vQ3VJ3508alc
ofwjZx4rMpaiI06f8qP0jkWYhTKUf78buvt52I1BWd1j5M4wedGLmbHEnvHeIt9C
AATXVI6WQFeUmIWR
-----END CERTIFICATE-----


-----BEGIN CERTIFICATE-----
MIIE6DCCA9CgAwIBAgIQGSEJ84S0Z28btL252uYZizANBgkqhkiG9w0BAQUFADBe
MQswCQYDVQQGEwJVUzEVMBMGA1UEChMMVGhhd3RlLCBJbmMuMR0wGwYDVQQLExRE
b21haW4gVmFsaWRhdGVkIFNTTDEZMBcGA1UEAxMQVGhhd3RlIERWIFNTTCBDQTAe
Fw0xMzAxMjgwMDAwMDBaFw0xNzAzMjgyMzU5NTlaMIGXMTswOQYDVQQLEzJHbyB0
byBodHRwczovL3d3dy50aGF3dGUuY29tL3JlcG9zaXRvcnkvaW5kZXguaHRtbDEi
MCAGA1UECxMZVGhhd3RlIFNTTDEyMyBjZXJ0aWZpY2F0ZTEZMBcGA1UECxMQRG9t
YWluIFZhbGlkYXRlZDEZMBcGA1UEAxQQY291bnRlci55YWRyby5ydTCCASIwDQYJ
KoZIhvcNAQEBBQADggEPADCCAQoCggEBALiyH1t3JseGkKq3NFt+TWn9+aL8hlUY
u+H6rjuBQJ8M2p1KNmgg1PYePPIQx6cYfV/uy5eRA3hvUyAdZ8/h9dusMVfp4u9B
e/Q+KOk1r29swBZaiLqdwRv7uuR3SzXxPvTtHn4z8Ud0LSeH9D81U+rWqxKrHtY0
Cm05FKP32rKtJRAak0+J/NioqgUWNPWNNuDrhnQ+n1yFdOCOqed3YNIHgSu21cYZ
8uxYW7J+qWMp4MJy4oTwN1kGftAP5ZO02KAjAJ319aXAcmmQeeTNMhJ1M2pJmal8
vUR9n5nqa52ll4UFpPSW3ImCgEApYCfQlXKqdd+xRcoggbJp7FYAYVUCAwEAAaOC
AWYwggFiMBsGA1UdEQQUMBKCEGNvdW50ZXIueWFkcm8ucnUwCQYDVR0TBAIwADA6
BgNVHR8EMzAxMC+gLaArhilodHRwOi8vc3ZyLWR2LWNybC50aGF3dGUuY29tL1Ro
YXd0ZURWLmNybDBBBgNVHSAEOjA4MDYGCmCGSAGG+EUBBzYwKDAmBggrBgEFBQcC
ARYaaHR0cHM6Ly93d3cudGhhd3RlLmNvbS9jcHMwHwYDVR0jBBgwFoAUq0TkXeyD
x9nAhZ/34caXkLCMP5gwDgYDVR0PAQH/BAQDAgWgMB0GA1UdJQQWMBQGCCsGAQUF
BwMBBggrBgEFBQcDAjBpBggrBgEFBQcBAQRdMFswIgYIKwYBBQUHMAGGFmh0dHA6
Ly9vY3NwLnRoYXd0ZS5jb20wNQYIKwYBBQUHMAKGKWh0dHA6Ly9zdnItZHYtYWlh
LnRoYXd0ZS5jb20vVGhhd3RlRFYuY2VyMA0GCSqGSIb3DQEBBQUAA4IBAQAILEx3
m43r6TZHI9FLqu0Rd+76nhugHqp3FrGvu0F+dwqlAYJ8umpC0K7CtraPB4fU8cPx
eztk++nQ4WgLq+okKRNfwve5SQGLeqlmJNECdlruxANr+C/AdcRVr087MHH6FvyJ
y/iQSnI8kmSusRXBXaZ4Q2PmQQRxaK+FjnesTKBzixw5au3ra6xA0ADvuyNREA36
XhhtuPDotJffjoHcz5bI78L0iNc+6EBhK0QpVUnsitCXzBGGst03vQ3VJ3508alc
ofwjZx4rMpaiI06f8qP0jkWYhTKUf78buvt52I1BWd1j5M4wedGLmbHEnvHeIt9C
AATXVI6WQFeUmIWR
-----END CERTIFICATE-----
